target datalayout = "e-m:e-p270:32:32-p271:32:32-p272:64:64-i64:64-i128:128-f80:128-n8:16:32:64-S128"
target triple = "x86_64-pc-linux-gnu"

%struct.strvec = type { ptr, i64, i64 }
%struct.object_id = type { [32 x i8], i32 }
%struct.repository = type { ptr, ptr, ptr, ptr, ptr, %struct.strmap, %struct.strmap, %struct.repo_path_cache, ptr, ptr, ptr, ptr, %struct.repo_settings, ptr, ptr, ptr, ptr, ptr, ptr, i32, i32, i32, ptr, ptr, i32, i32, i8 }
%struct.strmap = type { %struct.hashmap, ptr, i8 }
%struct.hashmap = type { ptr, ptr, ptr, i32, i32, i32, i32, i8 }
%struct.repo_path_cache = type { ptr, ptr, ptr, ptr, ptr, ptr, ptr }
%struct.repo_settings = type { i32, i32, i32, i32, i32, i32, i32, i32, i32, i32, i32, i32, ptr, i32, i32, i32, i32, i32, i32, i32, i64, i64, i64 }
%struct.string_list = type { ptr, i64, i64, i8, ptr }
%struct.lock_file = type { ptr }
%struct.object = type { i32, %struct.object_id }
%struct.tree = type { %struct.object, ptr, i64 }
%struct.unpack_trees_options = type { i32, i32, i32, i32, i32, i32, i32, i32, i32, i32, i32, i32, i32, i32, i32, i32, i32, ptr, ptr, ptr, ptr, i32, ptr, ptr, ptr, ptr, %struct.checkout_metadata, %struct.unpack_trees_options_internal }
%struct.checkout_metadata = type { ptr, %struct.object_id, %struct.object_id }
%struct.unpack_trees_options_internal = type { i32, i32, i32, i32, i32, [12 x ptr], %struct.strvec, [12 x %struct.string_list], %struct.index_state, ptr, ptr }
%struct.index_state = type { ptr, i32, i32, i32, i32, ptr, ptr, ptr, %struct.cache_time, i8, i32, %struct.hashmap, %struct.hashmap, %struct.object_id, ptr, ptr, ptr, ptr, ptr, ptr, ptr }
%struct.cache_time = type { i32, i32 }
%struct.tree_desc = type { ptr, ptr, %struct.name_entry, i32, i32 }
%struct.name_entry = type { %struct.object_id, ptr, i32, i32 }

@the_repository = external global ptr, align 8
@.str.266 = private unnamed_addr constant [31 x i8] c"unable to write new index file\00", align 1

; Function Attrs: inlinehint nounwind uwtable
define internal i32 @rollback_lock_file(ptr noundef %0) #5 {
  %2 = alloca ptr, align 8
  store ptr %0, ptr %2, align 8, !tbaa !237
  %3 = load ptr, ptr %2, align 8, !tbaa !237
  %4 = getelementptr inbounds nuw %struct.lock_file, ptr %3, i32 0, i32 0
  %5 = call i32 @delete_tempfile(ptr noundef %4)
  ret i32 %5
}

; Function Attrs: inlinehint nounwind uwtable
define internal i32 @parse_tree(ptr noundef %0) #5 {
  %2 = alloca ptr, align 8
  store ptr %0, ptr %2, align 8, !tbaa !208
  %3 = load ptr, ptr %2, align 8, !tbaa !208
  %4 = call i32 @parse_tree_gently(ptr noundef %3, i32 noundef 0)
  ret i32 %4
}

; Function Attrs: nounwind uwtable
define internal i32 @merge_tree(ptr noundef %0) #0 {
  %2 = alloca i32, align 4
  %3 = alloca ptr, align 8
  %4 = alloca %struct.lock_file, align 8
  %5 = alloca %struct.unpack_trees_options, align 8
  %6 = alloca [1 x %struct.tree_desc], align 16
  %7 = alloca i32, align 4
  store ptr %0, ptr %3, align 8, !tbaa !208
  call void @llvm.lifetime.start.p0(i64 8, ptr %4) #14
  call void @llvm.memset.p0.i64(ptr align 8 %4, i8 0, i64 8, i1 false)
  call void @llvm.lifetime.start.p0(i64 1120, ptr %5) #14
  call void @llvm.lifetime.start.p0(i64 80, ptr %6) #14
  %8 = load ptr, ptr %3, align 8, !tbaa !208
  %9 = call i32 @parse_tree(ptr noundef %8)
  %10 = icmp ne i32 %9, 0
  br i1 %10, label %11, label %12

11:                                               ; preds = %1
  store i32 -1, ptr %2, align 4
  store i32 1, ptr %7, align 4
  br label %50

12:                                               ; preds = %1
  %13 = load ptr, ptr @the_repository, align 8, !tbaa !13
  %14 = call i32 @repo_hold_locked_index(ptr noundef %13, ptr noundef %4, i32 noundef 1)
  call void @llvm.memset.p0.i64(ptr align 8 %5, i8 0, i64 1120, i1 false)
  %15 = getelementptr inbounds nuw %struct.unpack_trees_options, ptr %5, i32 0, i32 21
  store i32 1, ptr %15, align 8, !tbaa !210
  %16 = load ptr, ptr @the_repository, align 8, !tbaa !13
  %17 = getelementptr inbounds nuw %struct.repository, ptr %16, i32 0, i32 15
  %18 = load ptr, ptr %17, align 8, !tbaa !93
  %19 = getelementptr inbounds nuw %struct.unpack_trees_options, ptr %5, i32 0, i32 25
  store ptr %18, ptr %19, align 8, !tbaa !226
  %20 = load ptr, ptr @the_repository, align 8, !tbaa !13
  %21 = getelementptr inbounds nuw %struct.repository, ptr %20, i32 0, i32 15
  %22 = load ptr, ptr %21, align 8, !tbaa !93
  %23 = getelementptr inbounds nuw %struct.unpack_trees_options, ptr %5, i32 0, i32 24
  store ptr %22, ptr %23, align 8, !tbaa !227
  %24 = getelementptr inbounds nuw %struct.unpack_trees_options, ptr %5, i32 0, i32 0
  store i32 1, ptr %24, align 8, !tbaa !229
  %25 = getelementptr inbounds nuw %struct.unpack_trees_options, ptr %5, i32 0, i32 20
  store ptr @oneway_merge, ptr %25, align 8, !tbaa !232
  %26 = getelementptr inbounds [1 x %struct.tree_desc], ptr %6, i64 0, i64 0
  %27 = load ptr, ptr %3, align 8, !tbaa !208
  %28 = getelementptr inbounds nuw %struct.tree, ptr %27, i32 0, i32 0
  %29 = getelementptr inbounds nuw %struct.object, ptr %28, i32 0, i32 1
  %30 = load ptr, ptr %3, align 8, !tbaa !208
  %31 = getelementptr inbounds nuw %struct.tree, ptr %30, i32 0, i32 1
  %32 = load ptr, ptr %31, align 8, !tbaa !233
  %33 = load ptr, ptr %3, align 8, !tbaa !208
  %34 = getelementptr inbounds nuw %struct.tree, ptr %33, i32 0, i32 2
  %35 = load i64, ptr %34, align 8, !tbaa !236
  call void @init_tree_desc(ptr noundef %26, ptr noundef %29, ptr noundef %32, i64 noundef %35)
  %36 = getelementptr inbounds [1 x %struct.tree_desc], ptr %6, i64 0, i64 0
  %37 = call i32 @unpack_trees(i32 noundef 1, ptr noundef %36, ptr noundef %5)
  %38 = icmp ne i32 %37, 0
  br i1 %38, label %39, label %41

39:                                               ; preds = %12
  %40 = call i32 @rollback_lock_file(ptr noundef %4)
  store i32 -1, ptr %2, align 4
  store i32 1, ptr %7, align 4
  br label %50

41:                                               ; preds = %12
  %42 = load ptr, ptr @the_repository, align 8, !tbaa !13
  %43 = getelementptr inbounds nuw %struct.repository, ptr %42, i32 0, i32 15
  %44 = load ptr, ptr %43, align 8, !tbaa !93
  %45 = call i32 @write_locked_index(ptr noundef %44, ptr noundef %4, i32 noundef 1)
  %46 = icmp ne i32 %45, 0
  br i1 %46, label %47, label %49

47:                                               ; preds = %41
  %48 = call ptr @_(ptr noundef @.str.266)
  call void (ptr, ...) @die(ptr noundef %48) #15
  unreachable

49:                                               ; preds = %41
  store i32 0, ptr %2, align 4
  store i32 1, ptr %7, align 4
  br label %50

50:                                               ; preds = %49, %39, %11
  call void @llvm.lifetime.end.p0(i64 80, ptr %6) #14
  call void @llvm.lifetime.end.p0(i64 1120, ptr %5) #14
  call void @llvm.lifetime.end.p0(i64 8, ptr %4) #14
  %51 = load i32, ptr %2, align 4
  ret i32 %51
}