; Function Attrs: nounwind uwtable
define internal fastcc range(i32 -1, 1) i32 @merge_tree(ptr noundef nonnull %0) unnamed_addr #0 {
  %2 = alloca %struct.lock_file, align 8
  %3 = alloca %struct.unpack_trees_options, align 8
  %4 = alloca [1 x %struct.tree_desc], align 16
  call void @llvm.lifetime.start.p0(i64 8, ptr nonnull %2) #21
  store i64 0, ptr %2, align 8
  call void @llvm.lifetime.start.p0(i64 1120, ptr nonnull %3) #21
  call void @llvm.lifetime.start.p0(i64 80, ptr nonnull %4) #21
  %5 = tail call i32 @parse_tree_gently(ptr noundef nonnull %0, i32 noundef 0) #21
  %.not = icmp eq i32 %5, 0
  br i1 %.not, label %6, label %31

6:                                                ; preds = %1
  %7 = load ptr, ptr @the_repository, align 8, !tbaa !21
  %8 = call i32 @repo_hold_locked_index(ptr noundef %7, ptr noundef nonnull %2, i32 noundef 1) #21
  call void @llvm.memset.p0.i64(ptr noundef nonnull align 8 dereferenceable(1120) %3, i8 0, i64 1120, i1 false)
  %9 = getelementptr inbounds nuw i8, ptr %3, i64 104
  store i32 1, ptr %9, align 8, !tbaa !187
  %10 = load ptr, ptr @the_repository, align 8, !tbaa !21
  %11 = getelementptr inbounds nuw i8, ptr %10, i64 384
  %12 = load ptr, ptr %11, align 8, !tbaa !64
  %13 = getelementptr inbounds nuw i8, ptr %3, i64 136
  store ptr %12, ptr %13, align 8, !tbaa !203
  %14 = getelementptr inbounds nuw i8, ptr %3, i64 128
  store ptr %12, ptr %14, align 8, !tbaa !204
  store i32 1, ptr %3, align 8, !tbaa !206
  %15 = getelementptr inbounds nuw i8, ptr %3, i64 96
  store ptr @oneway_merge, ptr %15, align 8, !tbaa !208
  %16 = getelementptr inbounds nuw i8, ptr %0, i64 4
  %17 = getelementptr inbounds nuw i8, ptr %0, i64 40
  %18 = load ptr, ptr %17, align 8, !tbaa !209
  %19 = getelementptr inbounds nuw i8, ptr %0, i64 48
  %20 = load i64, ptr %19, align 8, !tbaa !212
  call void @init_tree_desc(ptr noundef nonnull %4, ptr noundef nonnull %16, ptr noundef %18, i64 noundef %20) #21
  %21 = call i32 @unpack_trees(i32 noundef 1, ptr noundef nonnull %4, ptr noundef nonnull %3) #21
  %.not4 = icmp eq i32 %21, 0
  br i1 %.not4, label %24, label %22

22:                                               ; preds = %6
  %23 = call i32 @delete_tempfile(ptr noundef nonnull %2) #21
  br label %31

24:                                               ; preds = %6
  %25 = load ptr, ptr @the_repository, align 8, !tbaa !21
  %26 = getelementptr inbounds nuw i8, ptr %25, i64 384
  %27 = load ptr, ptr %26, align 8, !tbaa !64
  %28 = call i32 @write_locked_index(ptr noundef %27, ptr noundef nonnull %2, i32 noundef 1) #21
  %.not5 = icmp eq i32 %28, 0
  br i1 %.not5, label %31, label %29

29:                                               ; preds = %24
  %30 = call fastcc ptr @_(ptr noundef nonnull @.str.266)
  call void (ptr, ...) @die(ptr noundef %30) #22
  unreachable

31:                                               ; preds = %24, %1, %22
  %.0 = phi i32 [ -1, %22 ], [ -1, %1 ], [ 0, %24 ]
  call void @llvm.lifetime.end.p0(i64 80, ptr nonnull %4) #21
  call void @llvm.lifetime.end.p0(i64 1120, ptr nonnull %3) #21
  call void @llvm.lifetime.end.p0(i64 8, ptr nonnull %2) #21
  ret i32 %.0
}